target datalayout = "e-m:e-p270:32:32-p271:32:32-p272:64:64-i64:64-i128:128-f80:128-n8:16:32:64-S128"
target triple = "x86_64-pc-linux-gnu"

%struct._ttinfo = type { i32, i32, i32, i32, i32 }
%struct._timelib_time = type { i64, i64, i64, i64, i64, i64, i64, i32, ptr, ptr, i32, %struct._timelib_rel_time, i64, i32, i32, i32, i32, i32, i32, i32, i32, i32 }
%struct._timelib_rel_time = type { i64, i64, i64, i64, i64, i64, i64, i32, i32, i32, i32, i64, %struct.anon.1, i32, i32 }
%struct.anon.1 = type { i32, i64 }

; Function Attrs: nounwind uwtable
define hidden i32 @timelib_get_time_zone_offset_info(i64 noundef %0, ptr noundef %1, ptr noundef %2, ptr noundef %3, ptr noundef %4) #0 {
  %6 = alloca i32, align 4
  %7 = alloca i64, align 8
  %8 = alloca ptr, align 8
  %9 = alloca ptr, align 8
  %10 = alloca ptr, align 8
  %11 = alloca ptr, align 8
  %12 = alloca ptr, align 8
  %13 = alloca i64, align 8
  %14 = alloca i32, align 4
  store i64 %0, ptr %7, align 8, !tbaa !64
  store ptr %1, ptr %8, align 8, !tbaa !4
  store ptr %2, ptr %9, align 8, !tbaa !78
  store ptr %3, ptr %10, align 8, !tbaa !94
  store ptr %4, ptr %11, align 8, !tbaa !78
  call void @llvm.lifetime.start.p0(i64 8, ptr %12) #11
  call void @llvm.lifetime.start.p0(i64 8, ptr %13) #11
  %15 = load ptr, ptr %8, align 8, !tbaa !4
  %16 = icmp eq ptr %15, null
  br i1 %16, label %17, label %18

17:                                               ; preds = %5
  store i32 0, ptr %6, align 4
  store i32 1, ptr %14, align 4
  br label %47

18:                                               ; preds = %5
  %19 = load ptr, ptr %8, align 8, !tbaa !4
  %20 = load i64, ptr %7, align 8, !tbaa !64
  %21 = call ptr @timelib_fetch_timezone_offset(ptr noundef %19, i64 noundef %20, ptr noundef %13)
  store ptr %21, ptr %12, align 8, !tbaa !96
  %22 = icmp ne ptr %21, null
  br i1 %22, label %23, label %46

23:                                               ; preds = %18
  %24 = load ptr, ptr %9, align 8, !tbaa !78
  %25 = icmp ne ptr %24, null
  br i1 %25, label %26, label %31

26:                                               ; preds = %23
  %27 = load ptr, ptr %12, align 8, !tbaa !96
  %28 = getelementptr inbounds nuw %struct._ttinfo, ptr %27, i32 0, i32 0
  %29 = load i32, ptr %28, align 4, !tbaa !57
  %30 = load ptr, ptr %9, align 8, !tbaa !78
  store i32 %29, ptr %30, align 4, !tbaa !32
  br label %31

31:                                               ; preds = %26, %23
  %32 = load ptr, ptr %11, align 8, !tbaa !78
  %33 = icmp ne ptr %32, null
  br i1 %33, label %34, label %39

34:                                               ; preds = %31
  %35 = load ptr, ptr %12, align 8, !tbaa !96
  %36 = getelementptr inbounds nuw %struct._ttinfo, ptr %35, i32 0, i32 1
  %37 = load i32, ptr %36, align 4, !tbaa !59
  %38 = load ptr, ptr %11, align 8, !tbaa !78
  store i32 %37, ptr %38, align 4, !tbaa !32
  br label %39

39:                                               ; preds = %34, %31
  %40 = load ptr, ptr %10, align 8, !tbaa !94
  %41 = icmp ne ptr %40, null
  br i1 %41, label %42, label %45

42:                                               ; preds = %39
  %43 = load i64, ptr %13, align 8, !tbaa !64
  %44 = load ptr, ptr %10, align 8, !tbaa !94
  store i64 %43, ptr %44, align 8, !tbaa !64
  br label %45

45:                                               ; preds = %42, %39
  store i32 1, ptr %6, align 4
  store i32 1, ptr %14, align 4
  br label %47

46:                                               ; preds = %18
  store i32 0, ptr %6, align 4
  store i32 1, ptr %14, align 4
  br label %47

47:                                               ; preds = %46, %45, %17
  call void @llvm.lifetime.end.p0(i64 8, ptr %13) #11
  call void @llvm.lifetime.end.p0(i64 8, ptr %12) #11
  %48 = load i32, ptr %6, align 4
  ret i32 %48
}

; Function Attrs: nounwind uwtable
define hidden i64 @timelib_get_current_offset(ptr noundef %0) #0 {
  %2 = alloca i64, align 8
  %3 = alloca ptr, align 8
  %4 = alloca i32, align 4
  store ptr %0, ptr %3, align 8, !tbaa !65
  %5 = load ptr, ptr %3, align 8, !tbaa !65
  %6 = getelementptr inbounds nuw %struct._timelib_time, ptr %5, i32 0, i32 21
  %7 = load i32, ptr %6, align 8, !tbaa !106
  switch i32 %7, label %28 [
    i32 2, label %8
    i32 1, label %8
    i32 3, label %18
  ]

8:                                                ; preds = %1, %1
  %9 = load ptr, ptr %3, align 8, !tbaa !65
  %10 = getelementptr inbounds nuw %struct._timelib_time, ptr %9, i32 0, i32 7
  %11 = load i32, ptr %10, align 8, !tbaa !107
  %12 = load ptr, ptr %3, align 8, !tbaa !65
  %13 = getelementptr inbounds nuw %struct._timelib_time, ptr %12, i32 0, i32 10
  %14 = load i32, ptr %13, align 8, !tbaa !108
  %15 = mul i32 %14, 3600
  %16 = add i32 %11, %15
  %17 = sext i32 %16 to i64
  store i64 %17, ptr %2, align 8
  br label %29

18:                                               ; preds = %1
  call void @llvm.lifetime.start.p0(i64 4, ptr %4) #11
  store i32 0, ptr %4, align 4, !tbaa !32
  %19 = load ptr, ptr %3, align 8, !tbaa !65
  %20 = getelementptr inbounds nuw %struct._timelib_time, ptr %19, i32 0, i32 12
  %21 = load i64, ptr %20, align 8, !tbaa !109
  %22 = load ptr, ptr %3, align 8, !tbaa !65
  %23 = getelementptr inbounds nuw %struct._timelib_time, ptr %22, i32 0, i32 9
  %24 = load ptr, ptr %23, align 8, !tbaa !110
  %25 = call i32 @timelib_get_time_zone_offset_info(i64 noundef %21, ptr noundef %24, ptr noundef %4, ptr noundef null, ptr noundef null)
  %26 = load i32, ptr %4, align 4, !tbaa !32
  %27 = sext i32 %26 to i64
  store i64 %27, ptr %2, align 8
  call void @llvm.lifetime.end.p0(i64 4, ptr %4) #11
  br label %29

28:                                               ; preds = %1
  store i64 0, ptr %2, align 8
  br label %29

29:                                               ; preds = %28, %18, %8
  %30 = load i64, ptr %2, align 8
  ret i64 %30
}