; Function Attrs: nounwind uwtable
define hidden range(i64 -2147483648, 2147483648) i64 @timelib_get_current_offset(ptr noundef readonly captures(none) %0) local_unnamed_addr #0 {
  %2 = alloca i64, align 8
  %3 = getelementptr inbounds nuw i8, ptr %0, i64 232
  %4 = load i32, ptr %3, align 8, !tbaa !90
  switch i32 %4, label %24 [
    i32 2, label %5
    i32 1, label %5
    i32 3, label %13
  ]

5:                                                ; preds = %1, %1
  %6 = getelementptr inbounds nuw i8, ptr %0, i64 56
  %7 = load i32, ptr %6, align 8, !tbaa !91
  %8 = getelementptr inbounds nuw i8, ptr %0, i64 80
  %9 = load i32, ptr %8, align 8, !tbaa !92
  %10 = mul i32 %9, 3600
  %11 = add i32 %10, %7
  %12 = sext i32 %11 to i64
  br label %24

13:                                               ; preds = %1
  %14 = getelementptr inbounds nuw i8, ptr %0, i64 192
  %15 = load i64, ptr %14, align 8, !tbaa !93
  %16 = getelementptr inbounds nuw i8, ptr %0, i64 72
  %17 = load ptr, ptr %16, align 8, !tbaa !94
  call void @llvm.lifetime.start.p0(i64 8, ptr nonnull %2) #17
  %18 = icmp eq ptr %17, null
  br i1 %18, label %timelib_get_time_zone_offset_info.exit, label %19

19:                                               ; preds = %13
  %20 = call ptr @timelib_fetch_timezone_offset(ptr noundef nonnull %17, i64 noundef %15, ptr noundef nonnull %2)
  %.not.i = icmp eq ptr %20, null
  br i1 %.not.i, label %timelib_get_time_zone_offset_info.exit, label %21

21:                                               ; preds = %19
  %22 = load i32, ptr %20, align 4, !tbaa !36
  %23 = sext i32 %22 to i64
  br label %timelib_get_time_zone_offset_info.exit

timelib_get_time_zone_offset_info.exit:           ; preds = %13, %19, %21
  %.05 = phi i64 [ 0, %13 ], [ 0, %19 ], [ %23, %21 ]
  call void @llvm.lifetime.end.p0(i64 8, ptr nonnull %2) #17
  br label %24

24:                                               ; preds = %1, %timelib_get_time_zone_offset_info.exit, %5
  %.0 = phi i64 [ %.05, %timelib_get_time_zone_offset_info.exit ], [ %12, %5 ], [ 0, %1 ]
  ret i64 %.0
}